# SymbolsHelper-Confirmed: 4:6.1.0 amd64
libkdecorations2private.so.11 libkdecorations2private11 #MINVER#
* Build-Depends-Package: libkdecorations2-dev
 _ZN12KDecoration216DecorationBridge11qt_metacallEN11QMetaObject4CallEiPPv@Base 4:6.1.0
 _ZN12KDecoration216DecorationBridge11qt_metacastEPKc@Base 4:6.1.0
 _ZN12KDecoration216DecorationBridge16staticMetaObjectE@Base 4:6.1.0
 _ZN12KDecoration216DecorationBridgeC1EP7QObject@Base 4:6.1.0
 _ZN12KDecoration216DecorationBridgeC2EP7QObject@Base 4:6.1.0
 _ZN12KDecoration216DecorationBridgeD0Ev@Base 4:6.1.0
 _ZN12KDecoration216DecorationBridgeD1Ev@Base 4:6.1.0
 _ZN12KDecoration216DecorationBridgeD2Ev@Base 4:6.1.0
 _ZN12KDecoration222DecoratedClientPrivate10decorationEv@Base 4:6.1.0
 _ZN12KDecoration222DecoratedClientPrivate6clientEv@Base 4:6.1.0
 _ZN12KDecoration222DecoratedClientPrivateC1EPNS_15DecoratedClientEPNS_10DecorationE@Base 4:6.1.0
 _ZN12KDecoration222DecoratedClientPrivateC2EPNS_15DecoratedClientEPNS_10DecorationE@Base 4:6.1.0
 _ZN12KDecoration222DecoratedClientPrivateD0Ev@Base 4:6.1.0
 _ZN12KDecoration222DecoratedClientPrivateD1Ev@Base 4:6.1.0
 _ZN12KDecoration222DecoratedClientPrivateD2Ev@Base 4:6.1.0
 _ZN12KDecoration225DecorationSettingsPrivate11setGridUnitEi@Base 4:6.1.0
 _ZN12KDecoration225DecorationSettingsPrivate15setLargeSpacingEi@Base 4:6.1.0
 _ZN12KDecoration225DecorationSettingsPrivate15setSmallSpacingEi@Base 4:6.1.0
 _ZN12KDecoration225DecorationSettingsPrivate18decorationSettingsEv@Base 4:6.1.0
 _ZN12KDecoration225DecorationSettingsPrivateC1EPNS_18DecorationSettingsE@Base 4:6.1.0
 _ZN12KDecoration225DecorationSettingsPrivateC2EPNS_18DecorationSettingsE@Base 4:6.1.0
 _ZN12KDecoration225DecorationSettingsPrivateD0Ev@Base 4:6.1.0
 _ZN12KDecoration225DecorationSettingsPrivateD1Ev@Base 4:6.1.0
 _ZN12KDecoration225DecorationSettingsPrivateD2Ev@Base 4:6.1.0
 _ZN12KDecoration244ApplicationMenuEnabledDecoratedClientPrivateC1EPNS_15DecoratedClientEPNS_10DecorationE@Base 4:6.1.0
 _ZN12KDecoration244ApplicationMenuEnabledDecoratedClientPrivateC2EPNS_15DecoratedClientEPNS_10DecorationE@Base 4:6.1.0
 _ZN12KDecoration244ApplicationMenuEnabledDecoratedClientPrivateD0Ev@Base 4:6.1.0
 _ZN12KDecoration244ApplicationMenuEnabledDecoratedClientPrivateD1Ev@Base 4:6.1.0
 _ZN12KDecoration244ApplicationMenuEnabledDecoratedClientPrivateD2Ev@Base 4:6.1.0
 _ZNK12KDecoration216DecorationBridge10metaObjectEv@Base 4:6.1.0
 _ZNK12KDecoration222DecoratedClientPrivate10decorationEv@Base 4:6.1.0
 _ZNK12KDecoration222DecoratedClientPrivate5colorENS_10ColorGroupENS_9ColorRoleE@Base 4:6.1.0
 _ZNK12KDecoration225DecorationSettingsPrivate11fontMetricsEv@Base 4:6.1.0
 _ZNK12KDecoration225DecorationSettingsPrivate12largeSpacingEv@Base 4:6.1.0
 _ZNK12KDecoration225DecorationSettingsPrivate12smallSpacingEv@Base 4:6.1.0
 _ZNK12KDecoration225DecorationSettingsPrivate18decorationSettingsEv@Base 4:6.1.0
 _ZNK12KDecoration225DecorationSettingsPrivate4fontEv@Base 4:6.1.0
 _ZNK12KDecoration225DecorationSettingsPrivate8gridUnitEv@Base 4:6.1.0
 _ZTIN12KDecoration216DecorationBridgeE@Base 4:6.1.0
 _ZTIN12KDecoration222DecoratedClientPrivateE@Base 4:6.1.0
 _ZTIN12KDecoration225DecorationSettingsPrivateE@Base 4:6.1.0
 _ZTIN12KDecoration244ApplicationMenuEnabledDecoratedClientPrivateE@Base 4:6.1.0
 _ZTSN12KDecoration216DecorationBridgeE@Base 4:6.1.0
 _ZTSN12KDecoration222DecoratedClientPrivateE@Base 4:6.1.0
 _ZTSN12KDecoration225DecorationSettingsPrivateE@Base 4:6.1.0
 _ZTSN12KDecoration244ApplicationMenuEnabledDecoratedClientPrivateE@Base 4:6.1.0
 _ZTVN12KDecoration216DecorationBridgeE@Base 4:6.1.0
 _ZTVN12KDecoration222DecoratedClientPrivateE@Base 4:6.1.0
 _ZTVN12KDecoration225DecorationSettingsPrivateE@Base 4:6.1.0
 _ZTVN12KDecoration244ApplicationMenuEnabledDecoratedClientPrivateE@Base 4:6.1.0
