# SymbolsHelper-Confirmed: 4:6.1.90 amd64
libkdecorations2.so.6 libkdecorations2-6 #MINVER#
* Build-Depends-Package: libkdecorations2-dev
 (subst)_Z5qHashRKN12KDecoration220DecorationButtonTypeE{size_t}@Base 4:6.1.0
 _ZGVZN9QMetaType21registerConverterImplI5QListIN12KDecoration220DecorationButtonTypeEE9QIterableI13QMetaSequenceEEEbSt8functionIFbPKvPvEES_S_E10unregister@Base 4:6.1.0
 _ZGVZN9QMetaType23registerMutableViewImplI5QListIN12KDecoration220DecorationButtonTypeEE9QIterableI13QMetaSequenceEEEbSt8functionIFbPvS9_EES_S_E10unregister@Base 4:6.1.0
 _ZN12KDecoration210Decoration10setBordersERK8QMargins@Base 4:6.1.0
 _ZN12KDecoration210Decoration10wheelEventEP11QWheelEvent@Base 4:6.1.0
 _ZN12KDecoration210Decoration11qt_metacallEN11QMetaObject4CallEiPPv@Base 4:6.1.0
 _ZN12KDecoration210Decoration11qt_metacastEPKc@Base 4:6.1.0
 _ZN12KDecoration210Decoration11setSettingsERKSt10shared_ptrINS_18DecorationSettingsEE@Base 4:6.1.0
 _ZN12KDecoration210Decoration11setTitleBarERK5QRect@Base 4:6.1.0
 _ZN12KDecoration210Decoration12requestCloseEv@Base 4:6.1.0
 _ZN12KDecoration210Decoration13opaqueChangedEb@Base 4:6.1.0
 _ZN12KDecoration210Decoration13setBlurRegionERK7QRegion@Base 4:6.1.0
 _ZN12KDecoration210Decoration13shadowChangedERKSt10shared_ptrINS_16DecorationShadowEE@Base 4:6.1.0
 _ZN12KDecoration210Decoration14bordersChangedEv@Base 4:6.1.0
 _ZN12KDecoration210Decoration14hoverMoveEventEP11QHoverEvent@Base 4:6.1.0
 _ZN12KDecoration210Decoration14mouseMoveEventEP11QMouseEvent@Base 4:6.1.0
 _ZN12KDecoration210Decoration15hoverEnterEventEP11QHoverEvent@Base 4:6.1.0
 _ZN12KDecoration210Decoration15hoverLeaveEventEP11QHoverEvent@Base 4:6.1.0
 _ZN12KDecoration210Decoration15mousePressEventEP11QMouseEvent@Base 4:6.1.0
 _ZN12KDecoration210Decoration15requestMinimizeEv@Base 4:6.1.0
 _ZN12KDecoration210Decoration15titleBarChangedEv@Base 4:6.1.0
 _ZN12KDecoration210Decoration16staticMetaObjectE@Base 4:6.1.0
 _ZN12KDecoration210Decoration17blurRegionChangedEv@Base 4:6.1.0
 _ZN12KDecoration210Decoration17mouseReleaseEventEP11QMouseEvent@Base 4:6.1.0
 _ZN12KDecoration210Decoration18requestContextHelpEv@Base 4:6.1.0
 _ZN12KDecoration210Decoration18requestHideToolTipEv@Base 4:6.1.0
 _ZN12KDecoration210Decoration18requestShowToolTipERK7QString@Base 4:6.1.0
 _ZN12KDecoration210Decoration18requestToggleShadeEv@Base 4:6.1.0
 _ZN12KDecoration210Decoration19showApplicationMenuEi@Base 4:6.1.0
 _ZN12KDecoration210Decoration20setResizeOnlyBordersERK8QMargins@Base 4:6.1.0
 _ZN12KDecoration210Decoration21requestShowWindowMenuERK5QRect@Base 4:6.1.0
 _ZN12KDecoration210Decoration21requestShowWindowMenuEv@Base 4:6.1.0
 _ZN12KDecoration210Decoration22requestToggleKeepAboveEv@Base 4:6.1.0
 _ZN12KDecoration210Decoration22requestToggleKeepBelowEv@Base 4:6.1.0
 _ZN12KDecoration210Decoration24resizeOnlyBordersChangedEv@Base 4:6.1.0
 _ZN12KDecoration210Decoration24sectionUnderMouseChangedEN2Qt18WindowFrameSectionE@Base 4:6.1.0
 _ZN12KDecoration210Decoration25requestToggleMaximizationE6QFlagsIN2Qt11MouseButtonEE@Base 4:6.1.0
 _ZN12KDecoration210Decoration26requestShowApplicationMenuERK5QRecti@Base 4:6.1.0
 _ZN12KDecoration210Decoration26requestToggleOnAllDesktopsEv@Base 4:6.1.0
 _ZN12KDecoration210Decoration5eventEP6QEvent@Base 4:6.1.0
 _ZN12KDecoration210Decoration6updateERK5QRect@Base 4:6.1.0
 _ZN12KDecoration210Decoration6updateEv@Base 4:6.1.0
 _ZN12KDecoration210Decoration7damagedERK7QRegion@Base 4:6.1.0
 _ZN12KDecoration210Decoration9setOpaqueEb@Base 4:6.1.0
 _ZN12KDecoration210Decoration9setShadowERKSt10shared_ptrINS_16DecorationShadowEE@Base 4:6.1.0
 _ZN12KDecoration210DecorationC1EP7QObjectRK5QListI8QVariantE@Base 4:6.1.0
 _ZN12KDecoration210DecorationC2EP7QObjectRK5QListI8QVariantE@Base 4:6.1.0
 _ZN12KDecoration210DecorationD0Ev@Base 4:6.1.0
 _ZN12KDecoration210DecorationD1Ev@Base 4:6.1.0
 _ZN12KDecoration210DecorationD2Ev@Base 4:6.1.0
 _ZN12KDecoration215DecoratedClient11iconChangedE5QIcon@Base 4:6.1.0
 _ZN12KDecoration215DecoratedClient11qt_metacallEN11QMetaObject4CallEiPPv@Base 4:6.1.0
 _ZN12KDecoration215DecoratedClient11qt_metacastEPKc@Base 4:6.1.0
 _ZN12KDecoration215DecoratedClient11sizeChangedERK5QSize@Base 4:6.1.0
 _ZN12KDecoration215DecoratedClient12widthChangedEi@Base 4:6.1.0
 _ZN12KDecoration215DecoratedClient13activeChangedEb@Base 4:6.1.0
 _ZN12KDecoration215DecoratedClient13heightChangedEi@Base 4:6.1.0
 _ZN12KDecoration215DecoratedClient13shadedChangedEb@Base 4:6.1.0
 _ZN12KDecoration215DecoratedClient14captionChangedE7QString@Base 4:6.1.0
 _ZN12KDecoration215DecoratedClient14paletteChangedERK8QPalette@Base 4:6.1.0
 _ZN12KDecoration215DecoratedClient15moveableChangedEb@Base 4:6.1.0
 _ZN12KDecoration215DecoratedClient16closeableChangedEb@Base 4:6.1.0
 _ZN12KDecoration215DecoratedClient16keepAboveChangedEb@Base 4:6.1.0
 _ZN12KDecoration215DecoratedClient16keepBelowChangedEb@Base 4:6.1.0
 _ZN12KDecoration215DecoratedClient16maximizedChangedEb@Base 4:6.1.0
 _ZN12KDecoration215DecoratedClient16shadeableChangedEb@Base 4:6.1.0
 _ZN12KDecoration215DecoratedClient16staticMetaObjectE@Base 4:6.1.0
 _ZN12KDecoration215DecoratedClient17resizeableChangedEb@Base 4:6.1.0
 _ZN12KDecoration215DecoratedClient19maximizeableChangedEb@Base 4:6.1.0
 _ZN12KDecoration215DecoratedClient19minimizeableChangedEb@Base 4:6.1.0
 _ZN12KDecoration215DecoratedClient19showApplicationMenuEi@Base 4:6.1.0
 _ZN12KDecoration215DecoratedClient20onAllDesktopsChangedEb@Base 4:6.1.0
 _ZN12KDecoration215DecoratedClient25hasApplicationMenuChangedEb@Base 4:6.1.0
 _ZN12KDecoration215DecoratedClient26adjacentScreenEdgesChangedE6QFlagsIN2Qt4EdgeEE@Base 4:6.1.0
 _ZN12KDecoration215DecoratedClient26maximizedVerticallyChangedEb@Base 4:6.1.0
 _ZN12KDecoration215DecoratedClient26providesContextHelpChangedEb@Base 4:6.1.0
 _ZN12KDecoration215DecoratedClient28applicationMenuActiveChangedEb@Base 4:6.1.0
 _ZN12KDecoration215DecoratedClient28maximizedHorizontallyChangedEb@Base 4:6.1.0
 _ZN12KDecoration215DecoratedClientC1EPNS_10DecorationEPNS_16DecorationBridgeE@Base 4:6.1.0
 _ZN12KDecoration215DecoratedClientC2EPNS_10DecorationEPNS_16DecorationBridgeE@Base 4:6.1.0
 _ZN12KDecoration215DecoratedClientD0Ev@Base 4:6.1.0
 _ZN12KDecoration215DecoratedClientD1Ev@Base 4:6.1.0
 _ZN12KDecoration215DecoratedClientD2Ev@Base 4:6.1.0
 _ZN12KDecoration216DecorationButton10setCheckedEb@Base 4:6.1.0
 _ZN12KDecoration216DecorationButton10setEnabledEb@Base 4:6.1.0
 _ZN12KDecoration216DecorationButton10setVisibleEb@Base 4:6.1.0
 _ZN12KDecoration216DecorationButton10wheelEventEP11QWheelEvent@Base 4:6.1.0
 _ZN12KDecoration216DecorationButton11pointerLeftEv@Base 4:6.1.0
 _ZN12KDecoration216DecorationButton11qt_metacallEN11QMetaObject4CallEiPPv@Base 4:6.1.0
 _ZN12KDecoration216DecorationButton11qt_metacastEPKc@Base 4:6.1.0
 _ZN12KDecoration216DecorationButton11setGeometryERK6QRectF@Base 4:6.1.0
 _ZN12KDecoration216DecorationButton12setCheckableEb@Base 4:6.1.0
 _ZN12KDecoration216DecorationButton13doubleClickedEv@Base 4:6.1.0
 _ZN12KDecoration216DecorationButton14checkedChangedEb@Base 4:6.1.0
 _ZN12KDecoration216DecorationButton14enabledChangedEb@Base 4:6.1.0
 _ZN12KDecoration216DecorationButton14hoverMoveEventEP11QHoverEvent@Base 4:6.1.0
 _ZN12KDecoration216DecorationButton14hoveredChangedEb@Base 4:6.1.0
 _ZN12KDecoration216DecorationButton14mouseMoveEventEP11QMouseEvent@Base 4:6.1.0
 _ZN12KDecoration216DecorationButton14pointerEnteredEv@Base 4:6.1.0
 _ZN12KDecoration216DecorationButton14pressedChangedEb@Base 4:6.1.0
 _ZN12KDecoration216DecorationButton15geometryChangedERK6QRectF@Base 4:6.1.0
 _ZN12KDecoration216DecorationButton15hoverEnterEventEP11QHoverEvent@Base 4:6.1.0
 _ZN12KDecoration216DecorationButton15hoverLeaveEventEP11QHoverEvent@Base 4:6.1.0
 _ZN12KDecoration216DecorationButton15mousePressEventEP11QMouseEvent@Base 4:6.1.0
 _ZN12KDecoration216DecorationButton16checkableChangedEb@Base 4:6.1.0
 _ZN12KDecoration216DecorationButton16staticMetaObjectE@Base 4:6.1.0
 _ZN12KDecoration216DecorationButton17mouseReleaseEventEP11QMouseEvent@Base 4:6.1.0
 _ZN12KDecoration216DecorationButton17visibilityChangedEb@Base 4:6.1.0
 _ZN12KDecoration216DecorationButton18setAcceptedButtonsE6QFlagsIN2Qt11MouseButtonEE@Base 4:6.1.0
 _ZN12KDecoration216DecorationButton22acceptedButtonsChangedE6QFlagsIN2Qt11MouseButtonEE@Base 4:6.1.0
 _ZN12KDecoration216DecorationButton5eventEP6QEvent@Base 4:6.1.0
 _ZN12KDecoration216DecorationButton6updateERK6QRectF@Base 4:6.1.0
 _ZN12KDecoration216DecorationButton6updateEv@Base 4:6.1.0
 _ZN12KDecoration216DecorationButton7clickedEN2Qt11MouseButtonE@Base 4:6.1.0
 _ZN12KDecoration216DecorationButton7pressedEv@Base 4:6.1.0
 _ZN12KDecoration216DecorationButton8releasedEv@Base 4:6.1.0
 _ZN12KDecoration216DecorationButtonC1ENS_20DecorationButtonTypeEPNS_10DecorationEP7QObject@Base 4:6.1.0
 _ZN12KDecoration216DecorationButtonC2ENS_20DecorationButtonTypeEPNS_10DecorationEP7QObject@Base 4:6.1.0
 _ZN12KDecoration216DecorationButtonD0Ev@Base 4:6.1.0
 _ZN12KDecoration216DecorationButtonD1Ev@Base 4:6.1.0
 _ZN12KDecoration216DecorationButtonD2Ev@Base 4:6.1.0
 _ZN12KDecoration216DecorationShadow10setPaddingERK8QMargins@Base 4:6.1.0
 _ZN12KDecoration216DecorationShadow11qt_metacallEN11QMetaObject4CallEiPPv@Base 4:6.1.0
 _ZN12KDecoration216DecorationShadow11qt_metacastEPKc@Base 4:6.1.0
 _ZN12KDecoration216DecorationShadow13shadowChangedERK6QImage@Base 4:6.1.0
 _ZN12KDecoration216DecorationShadow14paddingChangedEv@Base 4:6.1.0
 _ZN12KDecoration216DecorationShadow16staticMetaObjectE@Base 4:6.1.0
 _ZN12KDecoration216DecorationShadow18setInnerShadowRectERK5QRect@Base 4:6.1.0
 _ZN12KDecoration216DecorationShadow22innerShadowRectChangedEv@Base 4:6.1.0
 _ZN12KDecoration216DecorationShadow9setShadowERK6QImage@Base 4:6.1.0
 _ZN12KDecoration216DecorationShadowC1Ev@Base 4:6.1.0
 _ZN12KDecoration216DecorationShadowC2Ev@Base 4:6.1.0
 _ZN12KDecoration216DecorationShadowD0Ev@Base 4:6.1.0
 _ZN12KDecoration216DecorationShadowD1Ev@Base 4:6.1.0
 _ZN12KDecoration216DecorationShadowD2Ev@Base 4:6.1.0
 _ZN12KDecoration218DecorationSettings11fontChangedERK5QFont@Base 4:6.1.0
 _ZN12KDecoration218DecorationSettings11qt_metacallEN11QMetaObject4CallEiPPv@Base 4:6.1.0
 _ZN12KDecoration218DecorationSettings11qt_metacastEPKc@Base 4:6.1.0
 _ZN12KDecoration218DecorationSettings12reconfiguredEv@Base 4:6.1.0
 _ZN12KDecoration218DecorationSettings14spacingChangedEv@Base 4:6.1.0
 _ZN12KDecoration218DecorationSettings15gridUnitChangedEi@Base 4:6.1.0
 _ZN12KDecoration218DecorationSettings16staticMetaObjectE@Base 4:6.1.0
 _ZN12KDecoration218DecorationSettings17borderSizeChangedENS_10BorderSizeE@Base 4:6.1.0
 _ZN12KDecoration218DecorationSettings28alphaChannelSupportedChangedEb@Base 4:6.1.0
 _ZN12KDecoration218DecorationSettings28decorationButtonsLeftChangedERK5QListINS_20DecorationButtonTypeEE@Base 4:6.1.0
 _ZN12KDecoration218DecorationSettings29decorationButtonsRightChangedERK5QListINS_20DecorationButtonTypeEE@Base 4:6.1.0
 _ZN12KDecoration218DecorationSettings29onAllDesktopsAvailableChangedEb@Base 4:6.1.0
 _ZN12KDecoration218DecorationSettings31closeOnDoubleClickOnMenuChangedEb@Base 4:6.1.0
 _ZN12KDecoration218DecorationSettingsC1EPNS_16DecorationBridgeEP7QObject@Base 4:6.1.0
 _ZN12KDecoration218DecorationSettingsC2EPNS_16DecorationBridgeEP7QObject@Base 4:6.1.0
 _ZN12KDecoration218DecorationSettingsD0Ev@Base 4:6.1.0
 _ZN12KDecoration218DecorationSettingsD1Ev@Base 4:6.1.0
 _ZN12KDecoration218DecorationSettingsD2Ev@Base 4:6.1.0
 _ZN12KDecoration221DecorationButtonGroup10posChangedERK7QPointF@Base 4:6.1.0
 _ZN12KDecoration221DecorationButtonGroup10setSpacingEd@Base 4:6.1.0
 _ZN12KDecoration221DecorationButtonGroup11qt_metacallEN11QMetaObject4CallEiPPv@Base 4:6.1.0
 _ZN12KDecoration221DecorationButtonGroup11qt_metacastEPKc@Base 4:6.1.0
 _ZN12KDecoration221DecorationButtonGroup12removeButtonENS_20DecorationButtonTypeE@Base 4:6.1.0
 _ZN12KDecoration221DecorationButtonGroup12removeButtonEPNS_16DecorationButtonE@Base 4:6.1.0
 _ZN12KDecoration221DecorationButtonGroup14spacingChangedEd@Base 4:6.1.0
 _ZN12KDecoration221DecorationButtonGroup15geometryChangedERK6QRectF@Base 4:6.1.0
 _ZN12KDecoration221DecorationButtonGroup16staticMetaObjectE@Base 4:6.1.0
 _ZN12KDecoration221DecorationButtonGroup5paintEP8QPainterRK5QRect@Base 4:6.1.0
 _ZN12KDecoration221DecorationButtonGroup6setPosERK7QPointF@Base 4:6.1.0
 _ZN12KDecoration221DecorationButtonGroup9addButtonEPNS_16DecorationButtonE@Base 4:6.1.0
 _ZN12KDecoration221DecorationButtonGroupC1ENS0_8PositionEPNS_10DecorationESt8functionIFPNS_16DecorationButtonENS_20DecorationButtonTypeES3_P7QObjectEE@Base 4:6.1.0
 _ZN12KDecoration221DecorationButtonGroupC1EPNS_10DecorationE@Base 4:6.1.0
 _ZN12KDecoration221DecorationButtonGroupC2ENS0_8PositionEPNS_10DecorationESt8functionIFPNS_16DecorationButtonENS_20DecorationButtonTypeES3_P7QObjectEE@Base 4:6.1.0
 _ZN12KDecoration221DecorationButtonGroupC2EPNS_10DecorationE@Base 4:6.1.0
 _ZN12KDecoration221DecorationButtonGroupD0Ev@Base 4:6.1.0
 _ZN12KDecoration221DecorationButtonGroupD1Ev@Base 4:6.1.0
 _ZN12KDecoration221DecorationButtonGroupD2Ev@Base 4:6.1.0
 _ZN12KDecoration223DecorationThemeMetaData11setPluginIdERK7QString@Base 4:6.1.0
 _ZN12KDecoration223DecorationThemeMetaData12setThemeNameERK7QString@Base 4:6.1.0
 _ZN12KDecoration223DecorationThemeMetaData13setBorderSizeENS_10BorderSizeE@Base 4:6.1.0
 _ZN12KDecoration223DecorationThemeMetaData14setVisibleNameERK7QString@Base 4:6.1.0
 _ZN12KDecoration223DecorationThemeMetaData20setConfigurationNameERK7QString@Base 4:6.1.0
 _ZN12KDecoration223DecorationThemeMetaDataC1ERKS0_@Base 4:6.1.0
 _ZN12KDecoration223DecorationThemeMetaDataC1Ev@Base 4:6.1.0
 _ZN12KDecoration223DecorationThemeMetaDataC2ERKS0_@Base 4:6.1.0
 _ZN12KDecoration223DecorationThemeMetaDataC2Ev@Base 4:6.1.0
 _ZN12KDecoration223DecorationThemeMetaDataD0Ev@Base 4:6.1.0
 _ZN12KDecoration223DecorationThemeMetaDataD1Ev@Base 4:6.1.0
 _ZN12KDecoration223DecorationThemeMetaDataD2Ev@Base 4:6.1.0
 _ZN12KDecoration223DecorationThemeMetaDataaSERKS0_@Base 4:6.1.0
 _ZN12KDecoration223DecorationThemeProvider11qt_metacallEN11QMetaObject4CallEiPPv@Base 4:6.1.0
 _ZN12KDecoration223DecorationThemeProvider11qt_metacastEPKc@Base 4:6.1.0
 _ZN12KDecoration223DecorationThemeProvider16staticMetaObjectE@Base 4:6.1.0
 _ZN12KDecoration223DecorationThemeProviderC1EP7QObject@Base 4:6.1.0
 _ZN12KDecoration223DecorationThemeProviderC2EP7QObject@Base 4:6.1.0
 _ZN13QMetaSequence12MetaSequenceI5QListIN12KDecoration220DecorationButtonTypeEEE5valueE@Base 4:6.1.0
 _ZNK12KDecoration210Decoration10blurRegionEv@Base 4:6.1.0
 _ZNK12KDecoration210Decoration10borderLeftEv@Base 4:6.1.0
 _ZNK12KDecoration210Decoration10metaObjectEv@Base 4:6.1.0
 _ZNK12KDecoration210Decoration11borderRightEv@Base 4:6.1.0
 _ZNK12KDecoration210Decoration12borderBottomEv@Base 4:6.1.0
 _ZNK12KDecoration210Decoration17resizeOnlyBordersEv@Base 4:6.1.0
 _ZNK12KDecoration210Decoration17sectionUnderMouseEv@Base 4:6.1.0
 _ZNK12KDecoration210Decoration19resizeOnlyBorderTopEv@Base 4:6.1.0
 _ZNK12KDecoration210Decoration20resizeOnlyBorderLeftEv@Base 4:6.1.0
 _ZNK12KDecoration210Decoration21resizeOnlyBorderRightEv@Base 4:6.1.0
 _ZNK12KDecoration210Decoration22resizeOnlyBorderBottomEv@Base 4:6.1.0
 _ZNK12KDecoration210Decoration4rectEv@Base 4:6.1.0
 _ZNK12KDecoration210Decoration4sizeEv@Base 4:6.1.0
 _ZNK12KDecoration210Decoration6clientEv@Base 4:6.1.0
 _ZNK12KDecoration210Decoration6shadowEv@Base 4:6.1.0
 _ZNK12KDecoration210Decoration7bordersEv@Base 4:6.1.0
 _ZNK12KDecoration210Decoration8isOpaqueEv@Base 4:6.1.0
 _ZNK12KDecoration210Decoration8settingsEv@Base 4:6.1.0
 _ZNK12KDecoration210Decoration8titleBarEv@Base 4:6.1.0
 _ZNK12KDecoration210Decoration9borderTopEv@Base 4:6.1.0
 _ZNK12KDecoration215DecoratedClient10decorationEv@Base 4:6.1.0
 _ZNK12KDecoration215DecoratedClient10isMoveableEv@Base 4:6.1.0
 _ZNK12KDecoration215DecoratedClient10metaObjectEv@Base 4:6.1.0
 _ZNK12KDecoration215DecoratedClient11isCloseableEv@Base 4:6.1.0
 _ZNK12KDecoration215DecoratedClient11isKeepAboveEv@Base 4:6.1.0
 _ZNK12KDecoration215DecoratedClient11isKeepBelowEv@Base 4:6.1.0
 _ZNK12KDecoration215DecoratedClient11isMaximizedEv@Base 4:6.1.0
 _ZNK12KDecoration215DecoratedClient11isShadeableEv@Base 4:6.1.0
 _ZNK12KDecoration215DecoratedClient11windowClassEv@Base 4:6.1.0
 _ZNK12KDecoration215DecoratedClient12decorationIdEv@Base 4:6.1.0
 _ZNK12KDecoration215DecoratedClient12isResizeableEv@Base 4:6.1.0
 _ZNK12KDecoration215DecoratedClient14isMaximizeableEv@Base 4:6.1.0
 _ZNK12KDecoration215DecoratedClient14isMinimizeableEv@Base 4:6.1.0
 _ZNK12KDecoration215DecoratedClient15isOnAllDesktopsEv@Base 4:6.1.0
 _ZNK12KDecoration215DecoratedClient18hasApplicationMenuEv@Base 4:6.1.0
 _ZNK12KDecoration215DecoratedClient19adjacentScreenEdgesEv@Base 4:6.1.0
 _ZNK12KDecoration215DecoratedClient19providesContextHelpEv@Base 4:6.1.0
 _ZNK12KDecoration215DecoratedClient21isMaximizedVerticallyEv@Base 4:6.1.0
 _ZNK12KDecoration215DecoratedClient23isApplicationMenuActiveEv@Base 4:6.1.0
 _ZNK12KDecoration215DecoratedClient23isMaximizedHorizontallyEv@Base 4:6.1.0
 _ZNK12KDecoration215DecoratedClient4iconEv@Base 4:6.1.0
 _ZNK12KDecoration215DecoratedClient4sizeEv@Base 4:6.1.0
 _ZNK12KDecoration215DecoratedClient5colorEN8QPalette10ColorGroupENS1_9ColorRoleE@Base 4:6.1.0
 _ZNK12KDecoration215DecoratedClient5colorENS_10ColorGroupENS_9ColorRoleE@Base 4:6.1.0
 _ZNK12KDecoration215DecoratedClient5widthEv@Base 4:6.1.0
 _ZNK12KDecoration215DecoratedClient6heightEv@Base 4:6.1.0
 _ZNK12KDecoration215DecoratedClient7captionEv@Base 4:6.1.0
 _ZNK12KDecoration215DecoratedClient7isModalEv@Base 4:6.1.0
 _ZNK12KDecoration215DecoratedClient7paletteEv@Base 4:6.1.0
 _ZNK12KDecoration215DecoratedClient8isActiveEv@Base 4:6.1.0
 _ZNK12KDecoration215DecoratedClient8isShadedEv@Base 4:6.1.0
 _ZNK12KDecoration215DecoratedClient8windowIdEv@Base 4:6.1.0
 _ZNK12KDecoration216DecorationButton10decorationEv@Base 4:6.1.0
 _ZNK12KDecoration216DecorationButton10metaObjectEv@Base 4:6.1.0
 _ZNK12KDecoration216DecorationButton11isCheckableEv@Base 4:6.1.0
 _ZNK12KDecoration216DecorationButton15acceptedButtonsEv@Base 4:6.1.0
 _ZNK12KDecoration216DecorationButton4sizeEv@Base 4:6.1.0
 _ZNK12KDecoration216DecorationButton4typeEv@Base 4:6.1.0
 _ZNK12KDecoration216DecorationButton8containsERK7QPointF@Base 4:6.1.0
 _ZNK12KDecoration216DecorationButton8geometryEv@Base 4:6.1.0
 _ZNK12KDecoration216DecorationButton9isCheckedEv@Base 4:6.1.0
 _ZNK12KDecoration216DecorationButton9isEnabledEv@Base 4:6.1.0
 _ZNK12KDecoration216DecorationButton9isHoveredEv@Base 4:6.1.0
 _ZNK12KDecoration216DecorationButton9isPressedEv@Base 4:6.1.0
 _ZNK12KDecoration216DecorationButton9isVisibleEv@Base 4:6.1.0
 _ZNK12KDecoration216DecorationShadow10metaObjectEv@Base 4:6.1.0
 _ZNK12KDecoration216DecorationShadow10paddingTopEv@Base 4:6.1.0
 _ZNK12KDecoration216DecorationShadow11paddingLeftEv@Base 4:6.1.0
 _ZNK12KDecoration216DecorationShadow11topGeometryEv@Base 4:6.1.0
 _ZNK12KDecoration216DecorationShadow12leftGeometryEv@Base 4:6.1.0
 _ZNK12KDecoration216DecorationShadow12paddingRightEv@Base 4:6.1.0
 _ZNK12KDecoration216DecorationShadow13paddingBottomEv@Base 4:6.1.0
 _ZNK12KDecoration216DecorationShadow13rightGeometryEv@Base 4:6.1.0
 _ZNK12KDecoration216DecorationShadow14bottomGeometryEv@Base 4:6.1.0
 _ZNK12KDecoration216DecorationShadow15innerShadowRectEv@Base 4:6.1.0
 _ZNK12KDecoration216DecorationShadow15topLeftGeometryEv@Base 4:6.1.0
 _ZNK12KDecoration216DecorationShadow16topRightGeometryEv@Base 4:6.1.0
 _ZNK12KDecoration216DecorationShadow18bottomLeftGeometryEv@Base 4:6.1.0
 _ZNK12KDecoration216DecorationShadow19bottomRightGeometryEv@Base 4:6.1.0
 _ZNK12KDecoration216DecorationShadow6shadowEv@Base 4:6.1.0
 _ZNK12KDecoration216DecorationShadow7paddingEv@Base 4:6.1.0
 _ZNK12KDecoration218DecorationSettings10borderSizeEv@Base 4:6.1.0
 _ZNK12KDecoration218DecorationSettings10metaObjectEv@Base 4:6.1.0
 _ZNK12KDecoration218DecorationSettings11fontMetricsEv@Base 4:6.1.0
 _ZNK12KDecoration218DecorationSettings12largeSpacingEv@Base 4:6.1.0
 _ZNK12KDecoration218DecorationSettings12smallSpacingEv@Base 4:6.1.0
 _ZNK12KDecoration218DecorationSettings21decorationButtonsLeftEv@Base 4:6.1.0
 _ZNK12KDecoration218DecorationSettings22decorationButtonsRightEv@Base 4:6.1.0
 _ZNK12KDecoration218DecorationSettings23isAlphaChannelSupportedEv@Base 4:6.1.0
 _ZNK12KDecoration218DecorationSettings24isOnAllDesktopsAvailableEv@Base 4:6.1.0
 _ZNK12KDecoration218DecorationSettings26isCloseOnDoubleClickOnMenuEv@Base 4:6.1.0
 _ZNK12KDecoration218DecorationSettings4fontEv@Base 4:6.1.0
 _ZNK12KDecoration218DecorationSettings8gridUnitEv@Base 4:6.1.0
 _ZNK12KDecoration221DecorationButtonGroup10decorationEv@Base 4:6.1.0
 _ZNK12KDecoration221DecorationButtonGroup10metaObjectEv@Base 4:6.1.0
 _ZNK12KDecoration221DecorationButtonGroup3posEv@Base 4:6.1.0
 _ZNK12KDecoration221DecorationButtonGroup7buttonsEv@Base 4:6.1.0
 _ZNK12KDecoration221DecorationButtonGroup7spacingEv@Base 4:6.1.0
 _ZNK12KDecoration221DecorationButtonGroup8geometryEv@Base 4:6.1.0
 _ZNK12KDecoration221DecorationButtonGroup9hasButtonENS_20DecorationButtonTypeE@Base 4:6.1.0
 _ZNK12KDecoration223DecorationThemeMetaData10borderSizeEv@Base 4:6.1.0
 _ZNK12KDecoration223DecorationThemeMetaData11visibleNameEv@Base 4:6.1.0
 _ZNK12KDecoration223DecorationThemeMetaData17configurationNameEv@Base 4:6.1.0
 _ZNK12KDecoration223DecorationThemeMetaData8pluginIdEv@Base 4:6.1.0
 _ZNK12KDecoration223DecorationThemeMetaData9themeNameEv@Base 4:6.1.0
 _ZNK12KDecoration223DecorationThemeProvider10metaObjectEv@Base 4:6.1.0
 _ZTIN12KDecoration210DecorationE@Base 4:6.1.0
 _ZTIN12KDecoration215DecoratedClientE@Base 4:6.1.0
 _ZTIN12KDecoration216DecorationButtonE@Base 4:6.1.0
 _ZTIN12KDecoration216DecorationShadowE@Base 4:6.1.0
 _ZTIN12KDecoration218DecorationSettingsE@Base 4:6.1.0
 _ZTIN12KDecoration221DecorationButtonGroupE@Base 4:6.1.0
 _ZTIN12KDecoration223DecorationThemeMetaDataE@Base 4:6.1.0
 _ZTIN12KDecoration223DecorationThemeProviderE@Base 4:6.1.0
 (arch=armel riscv64)_ZTIN9__gnu_cxx7__mutexE@Base 4:6.1.0
 (arch=armel riscv64)_ZTISt11_Mutex_baseILN9__gnu_cxx12_Lock_policyE1EE@Base 4:6.1.0
 (arch=!armel !riscv64)_ZTISt11_Mutex_baseILN9__gnu_cxx12_Lock_policyE2EE@Base 4:6.1.0
 (arch=armel riscv64)_ZTISt15_Sp_counted_ptrIPN12KDecoration215DecoratedClientELN9__gnu_cxx12_Lock_policyE1EE@Base 4:6.1.0
 (arch=!armel !riscv64)_ZTISt15_Sp_counted_ptrIPN12KDecoration215DecoratedClientELN9__gnu_cxx12_Lock_policyE2EE@Base 4:6.1.0
 (arch=armel riscv64)_ZTISt16_Sp_counted_baseILN9__gnu_cxx12_Lock_policyE1EE@Base 4:6.1.0
 (arch=!armel !riscv64)_ZTISt16_Sp_counted_baseILN9__gnu_cxx12_Lock_policyE2EE@Base 4:6.1.0
 _ZTIZN9QMetaType17registerConverterI5QListIN12KDecoration220DecorationButtonTypeEE9QIterableI13QMetaSequenceEN9QtPrivate33QSequentialIterableConvertFunctorIS4_EEEEbT1_EUlPKvPvE_@Base 4:6.1.0
 _ZTIZN9QMetaType19registerMutableViewI5QListIN12KDecoration220DecorationButtonTypeEE9QIterableI13QMetaSequenceEN9QtPrivate37QSequentialIterableMutableViewFunctorIS4_EEEEbT1_EUlPvSC_E_@Base 4:6.1.0
 _ZTSN12KDecoration210DecorationE@Base 4:6.1.0
 _ZTSN12KDecoration215DecoratedClientE@Base 4:6.1.0
 _ZTSN12KDecoration216DecorationButtonE@Base 4:6.1.0
 _ZTSN12KDecoration216DecorationShadowE@Base 4:6.1.0
 _ZTSN12KDecoration218DecorationSettingsE@Base 4:6.1.0
 _ZTSN12KDecoration221DecorationButtonGroupE@Base 4:6.1.0
 _ZTSN12KDecoration223DecorationThemeMetaDataE@Base 4:6.1.0
 _ZTSN12KDecoration223DecorationThemeProviderE@Base 4:6.1.0
 (arch=armel riscv64)_ZTSN9__gnu_cxx7__mutexE@Base 4:6.1.0
 (arch=armel riscv64)_ZTSSt11_Mutex_baseILN9__gnu_cxx12_Lock_policyE1EE@Base 4:6.1.0
 (arch=!armel !riscv64)_ZTSSt11_Mutex_baseILN9__gnu_cxx12_Lock_policyE2EE@Base 4:6.1.0
 (arch=armel riscv64)_ZTSSt15_Sp_counted_ptrIPN12KDecoration215DecoratedClientELN9__gnu_cxx12_Lock_policyE1EE@Base 4:6.1.0
 (arch=!armel !riscv64)_ZTSSt15_Sp_counted_ptrIPN12KDecoration215DecoratedClientELN9__gnu_cxx12_Lock_policyE2EE@Base 4:6.1.0
 (arch=armel riscv64)_ZTSSt16_Sp_counted_baseILN9__gnu_cxx12_Lock_policyE1EE@Base 4:6.1.0
 (arch=!armel !riscv64)_ZTSSt16_Sp_counted_baseILN9__gnu_cxx12_Lock_policyE2EE@Base 4:6.1.0
 _ZTSZN9QMetaType17registerConverterI5QListIN12KDecoration220DecorationButtonTypeEE9QIterableI13QMetaSequenceEN9QtPrivate33QSequentialIterableConvertFunctorIS4_EEEEbT1_EUlPKvPvE_@Base 4:6.1.0
 _ZTSZN9QMetaType19registerMutableViewI5QListIN12KDecoration220DecorationButtonTypeEE9QIterableI13QMetaSequenceEN9QtPrivate37QSequentialIterableMutableViewFunctorIS4_EEEEbT1_EUlPvSC_E_@Base 4:6.1.0
 _ZTVN12KDecoration210DecorationE@Base 4:6.1.0
 _ZTVN12KDecoration215DecoratedClientE@Base 4:6.1.0
 _ZTVN12KDecoration216DecorationButtonE@Base 4:6.1.0
 _ZTVN12KDecoration216DecorationShadowE@Base 4:6.1.0
 _ZTVN12KDecoration218DecorationSettingsE@Base 4:6.1.0
 _ZTVN12KDecoration221DecorationButtonGroupE@Base 4:6.1.0
 _ZTVN12KDecoration223DecorationThemeMetaDataE@Base 4:6.1.0
 _ZTVN12KDecoration223DecorationThemeProviderE@Base 4:6.1.0
 (arch=armel riscv64)_ZTVSt15_Sp_counted_ptrIPN12KDecoration215DecoratedClientELN9__gnu_cxx12_Lock_policyE1EE@Base 4:6.1.0
 (arch=!armel !riscv64)_ZTVSt15_Sp_counted_ptrIPN12KDecoration215DecoratedClientELN9__gnu_cxx12_Lock_policyE2EE@Base 4:6.1.0
 (optional=templinst)_ZZN9QMetaType21registerConverterImplI5QListIN12KDecoration220DecorationButtonTypeEE9QIterableI13QMetaSequenceEEEbSt8functionIFbPKvPvEES_S_E10unregister@Base 4:6.1.0
 (optional=templinst)_ZZN9QMetaType23registerMutableViewImplI5QListIN12KDecoration220DecorationButtonTypeEE9QIterableI13QMetaSequenceEEEbSt8functionIFbPvS9_EES_S_E10unregister@Base 4:6.1.0
